target datalayout = "e-m:e-p270:32:32-p271:32:32-p272:64:64-i64:64-i128:128-f80:128-n8:16:32:64-S128"
target triple = "x86_64-pc-linux-gnu"

@H5T_init_g = external global i8, align 1
@H5_libterm_g = external global i8, align 1

; Function Attrs: nounwind uwtable
define void @H5T__bit_copy(ptr noundef %0, i64 noundef %1, ptr noundef %2, i64 noundef %3, i64 noundef %4) #0 {
  %6 = alloca ptr, align 8
  %7 = alloca i64, align 8
  %8 = alloca ptr, align 8
  %9 = alloca i64, align 8
  %10 = alloca i64, align 8
  %11 = alloca i64, align 8
  %12 = alloca i64, align 8
  %13 = alloca i64, align 8
  %14 = alloca i64, align 8
  %15 = alloca i64, align 8
  %16 = alloca i64, align 8
  %17 = alloca i64, align 8
  %18 = alloca i64, align 8
  %19 = alloca i64, align 8
  store ptr %0, ptr %6, align 8, !tbaa !3
  store i64 %1, ptr %7, align 8, !tbaa !8
  store ptr %2, ptr %8, align 8, !tbaa !3
  store i64 %3, ptr %9, align 8, !tbaa !8
  store i64 %4, ptr %10, align 8, !tbaa !8
  call void @llvm.lifetime.start.p0(i64 8, ptr %11) #4
  call void @llvm.lifetime.start.p0(i64 8, ptr %12) #4
  call void @llvm.lifetime.start.p0(i64 8, ptr %13) #4
  call void @llvm.lifetime.start.p0(i64 8, ptr %14) #4
  call void @llvm.lifetime.start.p0(i64 8, ptr %15) #4
  %20 = load i8, ptr @H5T_init_g, align 1, !tbaa !10, !range !12, !noundef !13
  %21 = trunc i8 %20 to i1
  br i1 %21, label %26, label %22

22:                                               ; preds = %5
  %23 = load i8, ptr @H5_libterm_g, align 1, !tbaa !10, !range !12, !noundef !13
  %24 = trunc i8 %23 to i1
  %25 = xor i1 %24, true
  br label %26

26:                                               ; preds = %22, %5
  %27 = phi i1 [ true, %5 ], [ %25, %22 ]
  %28 = xor i1 %27, true
  %29 = xor i1 %28, true
  %30 = zext i1 %29 to i32
  %31 = sext i32 %30 to i64
  %32 = call i64 @llvm.expect.i64(i64 %31, i64 1)
  %33 = icmp ne i64 %32, 0
  br i1 %33, label %34, label %356

34:                                               ; preds = %26
  %35 = load i64, ptr %9, align 8, !tbaa !8
  %36 = udiv i64 %35, 8
  store i64 %36, ptr %14, align 8, !tbaa !8
  %37 = load i64, ptr %7, align 8, !tbaa !8
  %38 = udiv i64 %37, 8
  store i64 %38, ptr %15, align 8, !tbaa !8
  %39 = load i64, ptr %9, align 8, !tbaa !8
  %40 = urem i64 %39, 8
  store i64 %40, ptr %9, align 8, !tbaa !8
  %41 = load i64, ptr %7, align 8, !tbaa !8
  %42 = urem i64 %41, 8
  store i64 %42, ptr %7, align 8, !tbaa !8
  br label %43

43:                                               ; preds = %147, %34
  %44 = load i64, ptr %9, align 8, !tbaa !8
  %45 = icmp ne i64 %44, 0
  br i1 %45, label %46, label %49

46:                                               ; preds = %43
  %47 = load i64, ptr %10, align 8, !tbaa !8
  %48 = icmp ugt i64 %47, 0
  br label %49

49:                                               ; preds = %46, %43
  %50 = phi i1 [ false, %43 ], [ %48, %46 ]
  br i1 %50, label %51, label %151

51:                                               ; preds = %49
  call void @llvm.lifetime.start.p0(i64 8, ptr %16) #4
  %52 = load i64, ptr %10, align 8, !tbaa !8
  %53 = load i64, ptr %7, align 8, !tbaa !8
  %54 = sub i64 8, %53
  %55 = load i64, ptr %9, align 8, !tbaa !8
  %56 = sub i64 8, %55
  %57 = icmp ult i64 %54, %56
  br i1 %57, label %58, label %61

58:                                               ; preds = %51
  %59 = load i64, ptr %7, align 8, !tbaa !8
  %60 = sub i64 8, %59
  br label %64

61:                                               ; preds = %51
  %62 = load i64, ptr %9, align 8, !tbaa !8
  %63 = sub i64 8, %62
  br label %64

64:                                               ; preds = %61, %58
  %65 = phi i64 [ %60, %58 ], [ %63, %61 ]
  %66 = icmp ult i64 %52, %65
  br i1 %66, label %67, label %69

67:                                               ; preds = %64
  %68 = load i64, ptr %10, align 8, !tbaa !8
  br label %83

69:                                               ; preds = %64
  %70 = load i64, ptr %7, align 8, !tbaa !8
  %71 = sub i64 8, %70
  %72 = load i64, ptr %9, align 8, !tbaa !8
  %73 = sub i64 8, %72
  %74 = icmp ult i64 %71, %73
  br i1 %74, label %75, label %78

75:                                               ; preds = %69
  %76 = load i64, ptr %7, align 8, !tbaa !8
  %77 = sub i64 8, %76
  br label %81

78:                                               ; preds = %69
  %79 = load i64, ptr %9, align 8, !tbaa !8
  %80 = sub i64 8, %79
  br label %81

81:                                               ; preds = %78, %75
  %82 = phi i64 [ %77, %75 ], [ %80, %78 ]
  br label %83

83:                                               ; preds = %81, %67
  %84 = phi i64 [ %68, %67 ], [ %82, %81 ]
  store i64 %84, ptr %16, align 8, !tbaa !8
  call void @llvm.lifetime.start.p0(i64 8, ptr %17) #4
  %85 = load i64, ptr %16, align 8, !tbaa !8
  %86 = shl i64 1, %85
  %87 = sub i64 %86, 1
  store i64 %87, ptr %17, align 8, !tbaa !8
  %88 = load i64, ptr %17, align 8, !tbaa !8
  %89 = load i64, ptr %7, align 8, !tbaa !8
  %90 = shl i64 %88, %89
  %91 = xor i64 %90, -1
  %92 = trunc i64 %91 to i8
  %93 = zext i8 %92 to i32
  %94 = load ptr, ptr %6, align 8, !tbaa !3
  %95 = load i64, ptr %15, align 8, !tbaa !8
  %96 = getelementptr inbounds nuw i8, ptr %94, i64 %95
  %97 = load i8, ptr %96, align 1, !tbaa !14
  %98 = zext i8 %97 to i32
  %99 = and i32 %98, %93
  %100 = trunc i32 %99 to i8
  store i8 %100, ptr %96, align 1, !tbaa !14
  %101 = load ptr, ptr %6, align 8, !tbaa !3
  %102 = load i64, ptr %15, align 8, !tbaa !8
  %103 = getelementptr inbounds nuw i8, ptr %101, i64 %102
  %104 = load i8, ptr %103, align 1, !tbaa !14
  %105 = zext i8 %104 to i32
  %106 = load ptr, ptr %8, align 8, !tbaa !3
  %107 = load i64, ptr %14, align 8, !tbaa !8
  %108 = getelementptr inbounds nuw i8, ptr %106, i64 %107
  %109 = load i8, ptr %108, align 1, !tbaa !14
  %110 = zext i8 %109 to i32
  %111 = load i64, ptr %9, align 8, !tbaa !8
  %112 = trunc i64 %111 to i32
  %113 = ashr i32 %110, %112
  %114 = load i64, ptr %17, align 8, !tbaa !8
  %115 = trunc i64 %114 to i8
  %116 = zext i8 %115 to i32
  %117 = and i32 %113, %116
  %118 = load i64, ptr %7, align 8, !tbaa !8
  %119 = trunc i64 %118 to i32
  %120 = shl i32 %117, %119
  %121 = or i32 %105, %120
  %122 = trunc i32 %121 to i8
  %123 = load ptr, ptr %6, align 8, !tbaa !3
  %124 = load i64, ptr %15, align 8, !tbaa !8
  %125 = getelementptr inbounds nuw i8, ptr %123, i64 %124
  store i8 %122, ptr %125, align 1, !tbaa !14
  %126 = load i64, ptr %16, align 8, !tbaa !8
  %127 = load i64, ptr %9, align 8, !tbaa !8
  %128 = add i64 %127, %126
  store i64 %128, ptr %9, align 8, !tbaa !8
  %129 = load i64, ptr %9, align 8, !tbaa !8
  %130 = icmp uge i64 %129, 8
  br i1 %130, label %131, label %136

131:                                              ; preds = %83
  %132 = load i64, ptr %14, align 8, !tbaa !8
  %133 = add i64 %132, 1
  store i64 %133, ptr %14, align 8, !tbaa !8
  %134 = load i64, ptr %9, align 8, !tbaa !8
  %135 = urem i64 %134, 8
  store i64 %135, ptr %9, align 8, !tbaa !8
  br label %136

136:                                              ; preds = %131, %83
  %137 = load i64, ptr %16, align 8, !tbaa !8
  %138 = load i64, ptr %7, align 8, !tbaa !8
  %139 = add i64 %138, %137
  store i64 %139, ptr %7, align 8, !tbaa !8
  %140 = load i64, ptr %7, align 8, !tbaa !8
  %141 = icmp uge i64 %140, 8
  br i1 %141, label %142, label %147

142:                                              ; preds = %136
  %143 = load i64, ptr %15, align 8, !tbaa !8
  %144 = add i64 %143, 1
  store i64 %144, ptr %15, align 8, !tbaa !8
  %145 = load i64, ptr %7, align 8, !tbaa !8
  %146 = urem i64 %145, 8
  store i64 %146, ptr %7, align 8, !tbaa !8
  br label %147

147:                                              ; preds = %142, %136
  %148 = load i64, ptr %16, align 8, !tbaa !8
  %149 = load i64, ptr %10, align 8, !tbaa !8
  %150 = sub i64 %149, %148
  store i64 %150, ptr %10, align 8, !tbaa !8
  call void @llvm.lifetime.end.p0(i64 8, ptr %17) #4
  call void @llvm.lifetime.end.p0(i64 8, ptr %16) #4
  br label %43, !llvm.loop !15

151:                                              ; preds = %49
  %152 = load i64, ptr %7, align 8, !tbaa !8
  store i64 %152, ptr %11, align 8, !tbaa !8
  %153 = load i64, ptr %11, align 8, !tbaa !8
  %154 = sub i64 8, %153
  %155 = shl i64 1, %154
  %156 = sub i64 %155, 1
  store i64 %156, ptr %12, align 8, !tbaa !8
  %157 = load i64, ptr %12, align 8, !tbaa !8
  %158 = xor i64 %157, -1
  %159 = and i64 %158, 255
  store i64 %159, ptr %13, align 8, !tbaa !8
  br label %160

160:                                              ; preds = %244, %151
  %161 = load i64, ptr %10, align 8, !tbaa !8
  %162 = icmp ugt i64 %161, 8
  br i1 %162, label %163, label %251

163:                                              ; preds = %160
  %164 = load i64, ptr %11, align 8, !tbaa !8
  %165 = icmp ne i64 %164, 0
  br i1 %165, label %166, label %235

166:                                              ; preds = %163
  %167 = load i64, ptr %12, align 8, !tbaa !8
  %168 = load i64, ptr %11, align 8, !tbaa !8
  %169 = shl i64 %167, %168
  %170 = xor i64 %169, -1
  %171 = trunc i64 %170 to i8
  %172 = zext i8 %171 to i32
  %173 = load ptr, ptr %6, align 8, !tbaa !3
  %174 = load i64, ptr %15, align 8, !tbaa !8
  %175 = add i64 %174, 0
  %176 = getelementptr inbounds nuw i8, ptr %173, i64 %175
  %177 = load i8, ptr %176, align 1, !tbaa !14
  %178 = zext i8 %177 to i32
  %179 = and i32 %178, %172
  %180 = trunc i32 %179 to i8
  store i8 %180, ptr %176, align 1, !tbaa !14
  %181 = load ptr, ptr %8, align 8, !tbaa !3
  %182 = load i64, ptr %14, align 8, !tbaa !8
  %183 = getelementptr inbounds nuw i8, ptr %181, i64 %182
  %184 = load i8, ptr %183, align 1, !tbaa !14
  %185 = zext i8 %184 to i64
  %186 = load i64, ptr %12, align 8, !tbaa !8
  %187 = and i64 %185, %186
  %188 = load i64, ptr %11, align 8, !tbaa !8
  %189 = shl i64 %187, %188
  %190 = trunc i64 %189 to i8
  %191 = zext i8 %190 to i32
  %192 = load ptr, ptr %6, align 8, !tbaa !3
  %193 = load i64, ptr %15, align 8, !tbaa !8
  %194 = add i64 %193, 0
  %195 = getelementptr inbounds nuw i8, ptr %192, i64 %194
  %196 = load i8, ptr %195, align 1, !tbaa !14
  %197 = zext i8 %196 to i32
  %198 = or i32 %197, %191
  %199 = trunc i32 %198 to i8
  store i8 %199, ptr %195, align 1, !tbaa !14
  %200 = load i64, ptr %13, align 8, !tbaa !8
  %201 = load i64, ptr %11, align 8, !tbaa !8
  %202 = sub i64 8, %201
  %203 = lshr i64 %200, %202
  %204 = xor i64 %203, -1
  %205 = trunc i64 %204 to i8
  %206 = zext i8 %205 to i32
  %207 = load ptr, ptr %6, align 8, !tbaa !3
  %208 = load i64, ptr %15, align 8, !tbaa !8
  %209 = add i64 %208, 1
  %210 = getelementptr inbounds nuw i8, ptr %207, i64 %209
  %211 = load i8, ptr %210, align 1, !tbaa !14
  %212 = zext i8 %211 to i32
  %213 = and i32 %212, %206
  %214 = trunc i32 %213 to i8
  store i8 %214, ptr %210, align 1, !tbaa !14
  %215 = load ptr, ptr %8, align 8, !tbaa !3
  %216 = load i64, ptr %14, align 8, !tbaa !8
  %217 = getelementptr inbounds nuw i8, ptr %215, i64 %216
  %218 = load i8, ptr %217, align 1, !tbaa !14
  %219 = zext i8 %218 to i64
  %220 = load i64, ptr %13, align 8, !tbaa !8
  %221 = and i64 %219, %220
  %222 = load i64, ptr %11, align 8, !tbaa !8
  %223 = sub i64 8, %222
  %224 = lshr i64 %221, %223
  %225 = trunc i64 %224 to i8
  %226 = zext i8 %225 to i32
  %227 = load ptr, ptr %6, align 8, !tbaa !3
  %228 = load i64, ptr %15, align 8, !tbaa !8
  %229 = add i64 %228, 1
  %230 = getelementptr inbounds nuw i8, ptr %227, i64 %229
  %231 = load i8, ptr %230, align 1, !tbaa !14
  %232 = zext i8 %231 to i32
  %233 = or i32 %232, %226
  %234 = trunc i32 %233 to i8
  store i8 %234, ptr %230, align 1, !tbaa !14
  br label %243

235:                                              ; preds = %163
  %236 = load ptr, ptr %8, align 8, !tbaa !3
  %237 = load i64, ptr %14, align 8, !tbaa !8
  %238 = getelementptr inbounds nuw i8, ptr %236, i64 %237
  %239 = load i8, ptr %238, align 1, !tbaa !14
  %240 = load ptr, ptr %6, align 8, !tbaa !3
  %241 = load i64, ptr %15, align 8, !tbaa !8
  %242 = getelementptr inbounds nuw i8, ptr %240, i64 %241
  store i8 %239, ptr %242, align 1, !tbaa !14
  br label %243

243:                                              ; preds = %235, %166
  br label %244

244:                                              ; preds = %243
  %245 = load i64, ptr %10, align 8, !tbaa !8
  %246 = sub i64 %245, 8
  store i64 %246, ptr %10, align 8, !tbaa !8
  %247 = load i64, ptr %15, align 8, !tbaa !8
  %248 = add i64 %247, 1
  store i64 %248, ptr %15, align 8, !tbaa !8
  %249 = load i64, ptr %14, align 8, !tbaa !8
  %250 = add i64 %249, 1
  store i64 %250, ptr %14, align 8, !tbaa !8
  br label %160, !llvm.loop !17

251:                                              ; preds = %160
  br label %252

252:                                              ; preds = %351, %251
  %253 = load i64, ptr %10, align 8, !tbaa !8
  %254 = icmp ugt i64 %253, 0
  br i1 %254, label %255, label %355

255:                                              ; preds = %252
  call void @llvm.lifetime.start.p0(i64 8, ptr %18) #4
  %256 = load i64, ptr %10, align 8, !tbaa !8
  %257 = load i64, ptr %7, align 8, !tbaa !8
  %258 = sub i64 8, %257
  %259 = load i64, ptr %9, align 8, !tbaa !8
  %260 = sub i64 8, %259
  %261 = icmp ult i64 %258, %260
  br i1 %261, label %262, label %265

262:                                              ; preds = %255
  %263 = load i64, ptr %7, align 8, !tbaa !8
  %264 = sub i64 8, %263
  br label %268

265:                                              ; preds = %255
  %266 = load i64, ptr %9, align 8, !tbaa !8
  %267 = sub i64 8, %266
  br label %268

268:                                              ; preds = %265, %262
  %269 = phi i64 [ %264, %262 ], [ %267, %265 ]
  %270 = icmp ult i64 %256, %269
  br i1 %270, label %271, label %273

271:                                              ; preds = %268
  %272 = load i64, ptr %10, align 8, !tbaa !8
  br label %287

273:                                              ; preds = %268
  %274 = load i64, ptr %7, align 8, !tbaa !8
  %275 = sub i64 8, %274
  %276 = load i64, ptr %9, align 8, !tbaa !8
  %277 = sub i64 8, %276
  %278 = icmp ult i64 %275, %277
  br i1 %278, label %279, label %282

279:                                              ; preds = %273
  %280 = load i64, ptr %7, align 8, !tbaa !8
  %281 = sub i64 8, %280
  br label %285

282:                                              ; preds = %273
  %283 = load i64, ptr %9, align 8, !tbaa !8
  %284 = sub i64 8, %283
  br label %285

285:                                              ; preds = %282, %279
  %286 = phi i64 [ %281, %279 ], [ %284, %282 ]
  br label %287

287:                                              ; preds = %285, %271
  %288 = phi i64 [ %272, %271 ], [ %286, %285 ]
  store i64 %288, ptr %18, align 8, !tbaa !8
  call void @llvm.lifetime.start.p0(i64 8, ptr %19) #4
  %289 = load i64, ptr %18, align 8, !tbaa !8
  %290 = shl i64 1, %289
  %291 = sub i64 %290, 1
  store i64 %291, ptr %19, align 8, !tbaa !8
  %292 = load i64, ptr %19, align 8, !tbaa !8
  %293 = load i64, ptr %7, align 8, !tbaa !8
  %294 = shl i64 %292, %293
  %295 = xor i64 %294, -1
  %296 = trunc i64 %295 to i8
  %297 = zext i8 %296 to i32
  %298 = load ptr, ptr %6, align 8, !tbaa !3
  %299 = load i64, ptr %15, align 8, !tbaa !8
  %300 = getelementptr inbounds nuw i8, ptr %298, i64 %299
  %301 = load i8, ptr %300, align 1, !tbaa !14
  %302 = zext i8 %301 to i32
  %303 = and i32 %302, %297
  %304 = trunc i32 %303 to i8
  store i8 %304, ptr %300, align 1, !tbaa !14
  %305 = load ptr, ptr %6, align 8, !tbaa !3
  %306 = load i64, ptr %15, align 8, !tbaa !8
  %307 = getelementptr inbounds nuw i8, ptr %305, i64 %306
  %308 = load i8, ptr %307, align 1, !tbaa !14
  %309 = zext i8 %308 to i32
  %310 = load ptr, ptr %8, align 8, !tbaa !3
  %311 = load i64, ptr %14, align 8, !tbaa !8
  %312 = getelementptr inbounds nuw i8, ptr %310, i64 %311
  %313 = load i8, ptr %312, align 1, !tbaa !14
  %314 = zext i8 %313 to i32
  %315 = load i64, ptr %9, align 8, !tbaa !8
  %316 = trunc i64 %315 to i32
  %317 = ashr i32 %314, %316
  %318 = load i64, ptr %19, align 8, !tbaa !8
  %319 = trunc i64 %318 to i8
  %320 = zext i8 %319 to i32
  %321 = and i32 %317, %320
  %322 = load i64, ptr %7, align 8, !tbaa !8
  %323 = trunc i64 %322 to i32
  %324 = shl i32 %321, %323
  %325 = or i32 %309, %324
  %326 = trunc i32 %325 to i8
  %327 = load ptr, ptr %6, align 8, !tbaa !3
  %328 = load i64, ptr %15, align 8, !tbaa !8
  %329 = getelementptr inbounds nuw i8, ptr %327, i64 %328
  store i8 %326, ptr %329, align 1, !tbaa !14
  %330 = load i64, ptr %18, align 8, !tbaa !8
  %331 = load i64, ptr %9, align 8, !tbaa !8
  %332 = add i64 %331, %330
  store i64 %332, ptr %9, align 8, !tbaa !8
  %333 = load i64, ptr %9, align 8, !tbaa !8
  %334 = icmp uge i64 %333, 8
  br i1 %334, label %335, label %340

335:                                              ; preds = %287
  %336 = load i64, ptr %14, align 8, !tbaa !8
  %337 = add i64 %336, 1
  store i64 %337, ptr %14, align 8, !tbaa !8
  %338 = load i64, ptr %9, align 8, !tbaa !8
  %339 = urem i64 %338, 8
  store i64 %339, ptr %9, align 8, !tbaa !8
  br label %340

340:                                              ; preds = %335, %287
  %341 = load i64, ptr %18, align 8, !tbaa !8
  %342 = load i64, ptr %7, align 8, !tbaa !8
  %343 = add i64 %342, %341
  store i64 %343, ptr %7, align 8, !tbaa !8
  %344 = load i64, ptr %7, align 8, !tbaa !8
  %345 = icmp uge i64 %344, 8
  br i1 %345, label %346, label %351

346:                                              ; preds = %340
  %347 = load i64, ptr %15, align 8, !tbaa !8
  %348 = add i64 %347, 1
  store i64 %348, ptr %15, align 8, !tbaa !8
  %349 = load i64, ptr %7, align 8, !tbaa !8
  %350 = urem i64 %349, 8
  store i64 %350, ptr %7, align 8, !tbaa !8
  br label %351

351:                                              ; preds = %346, %340
  %352 = load i64, ptr %18, align 8, !tbaa !8
  %353 = load i64, ptr %10, align 8, !tbaa !8
  %354 = sub i64 %353, %352
  store i64 %354, ptr %10, align 8, !tbaa !8
  call void @llvm.lifetime.end.p0(i64 8, ptr %19) #4
  call void @llvm.lifetime.end.p0(i64 8, ptr %18) #4
  br label %252, !llvm.loop !18

355:                                              ; preds = %252
  br label %356

356:                                              ; preds = %355, %26
  call void @llvm.lifetime.end.p0(i64 8, ptr %15) #4
  call void @llvm.lifetime.end.p0(i64 8, ptr %14) #4
  call void @llvm.lifetime.end.p0(i64 8, ptr %13) #4
  call void @llvm.lifetime.end.p0(i64 8, ptr %12) #4
  call void @llvm.lifetime.end.p0(i64 8, ptr %11) #4
  ret void
}