; Function Attrs: nofree norecurse nosync nounwind memory(read, argmem: readwrite, inaccessiblemem: none) uwtable
define void @H5T__bit_copy(ptr noundef captures(none) %0, i64 noundef %1, ptr noundef readonly captures(none) %2, i64 noundef %3, i64 noundef %4) local_unnamed_addr #0 {
  %6 = load i8, ptr @H5T_init_g, align 1, !tbaa !3, !range !7, !noundef !8
  %7 = trunc nuw i8 %6 to i1
  %8 = load i8, ptr @H5_libterm_g, align 1, !range !7
  %9 = trunc nuw i8 %8 to i1
  %10 = xor i1 %9, true
  %11 = select i1 %7, i1 true, i1 %10
  br i1 %11, label %12, label %.loopexit, !prof !9

12:                                               ; preds = %5
  %13 = lshr i64 %3, 3
  %14 = lshr i64 %1, 3
  %.0139 = and i64 %1, 7
  %.0110140 = and i64 %3, 7
  %15 = icmp ne i64 %.0110140, 0
  %16 = icmp ne i64 %4, 0
  %17 = and i1 %15, %16
  br i1 %17, label %.lr.ph, label %._crit_edge

.lr.ph:                                           ; preds = %12, %.lr.ph
  %.0110145 = phi i64 [ %.0110, %.lr.ph ], [ %.0110140, %12 ]
  %.0144 = phi i64 [ %.0, %.lr.ph ], [ %.0139, %12 ]
  %.0114143 = phi i64 [ %43, %.lr.ph ], [ %4, %12 ]
  %.0117142 = phi i64 [ %.1118, %.lr.ph ], [ %13, %12 ]
  %.0121141 = phi i64 [ %.1122, %.lr.ph ], [ %14, %12 ]
  %18 = sub nuw nsw i64 8, %.0144
  %19 = sub nuw nsw i64 8, %.0110145
  %20 = tail call i64 @llvm.umin.i64(i64 %18, i64 %19)
  %.0114. = tail call i64 @llvm.umin.i64(i64 %.0114143, i64 %20)
  %notmask138 = shl nsw i64 -1, %.0114.
  %21 = xor i64 %notmask138, -1
  %22 = shl nuw nsw i64 %21, %.0144
  %23 = trunc i64 %22 to i8
  %24 = xor i8 %23, -1
  %25 = getelementptr inbounds nuw i8, ptr %0, i64 %.0121141
  %26 = load i8, ptr %25, align 1, !tbaa !10
  %27 = and i8 %26, %24
  store i8 %27, ptr %25, align 1, !tbaa !10
  %28 = getelementptr inbounds nuw i8, ptr %2, i64 %.0117142
  %29 = load i8, ptr %28, align 1, !tbaa !10
  %30 = trunc nuw nsw i64 %.0110145 to i8
  %31 = lshr i8 %29, %30
  %32 = trunc nuw i64 %21 to i8
  %33 = and i8 %31, %32
  %34 = trunc nuw nsw i64 %.0144 to i8
  %35 = shl i8 %33, %34
  %36 = or i8 %35, %27
  store i8 %36, ptr %25, align 1, !tbaa !10
  %37 = add nuw nsw i64 %.0114., %.0110145
  %38 = icmp samesign ugt i64 %37, 7
  %39 = zext i1 %38 to i64
  %.1118 = add i64 %.0117142, %39
  %40 = add nuw nsw i64 %.0114., %.0144
  %41 = icmp samesign ugt i64 %40, 7
  %42 = zext i1 %41 to i64
  %.1122 = add i64 %.0121141, %42
  %43 = sub i64 %.0114143, %.0114.
  %.0 = and i64 %40, 7
  %.0110 = and i64 %37, 7
  %44 = icmp ne i64 %.0110, 0
  %45 = icmp ne i64 %43, 0
  %46 = select i1 %44, i1 %45, i1 false
  br i1 %46, label %.lr.ph, label %._crit_edge, !llvm.loop !11

._crit_edge:                                      ; preds = %.lr.ph, %12
  %.0121.lcssa = phi i64 [ %14, %12 ], [ %.1122, %.lr.ph ]
  %.0117.lcssa = phi i64 [ %13, %12 ], [ %.1118, %.lr.ph ]
  %.0114.lcssa = phi i64 [ %4, %12 ], [ %43, %.lr.ph ]
  %.0.lcssa = phi i64 [ %.0139, %12 ], [ %.0, %.lr.ph ]
  %.0110.lcssa = phi i64 [ %.0110140, %12 ], [ %.0110, %.lr.ph ]
  %47 = sub nuw nsw i64 8, %.0.lcssa
  %notmask = shl nsw i64 -1, %47
  %48 = icmp ugt i64 %.0114.lcssa, 8
  br i1 %48, label %.lr.ph154, label %.preheader

.lr.ph154:                                        ; preds = %._crit_edge
  %49 = and i64 %notmask, 254
  %50 = xor i64 %notmask, -1
  %.not137 = icmp eq i64 %.0.lcssa, 0
  %51 = shl nuw nsw i64 %50, %.0.lcssa
  %52 = trunc i64 %51 to i8
  %53 = xor i8 %52, -1
  %54 = lshr i64 %49, %47
  %55 = trunc nuw nsw i64 %54 to i8
  %56 = xor i8 %55, -1
  br i1 %.not137, label %.lr.ph154.split.us, label %.lr.ph154.split.preheader

.lr.ph154.split.preheader:                        ; preds = %.lr.ph154
  %scevgep = getelementptr i8, ptr %0, i64 %.0121.lcssa
  %load_initial = load i8, ptr %scevgep, align 1
  br label %.lr.ph154.split

.lr.ph154.split.us:                               ; preds = %.lr.ph154, %.lr.ph154.split.us
  %.1115152.us = phi i64 [ %60, %.lr.ph154.split.us ], [ %.0114.lcssa, %.lr.ph154 ]
  %.2119151.us = phi i64 [ %62, %.lr.ph154.split.us ], [ %.0117.lcssa, %.lr.ph154 ]
  %.2123150.us = phi i64 [ %61, %.lr.ph154.split.us ], [ %.0121.lcssa, %.lr.ph154 ]
  %57 = getelementptr inbounds nuw i8, ptr %2, i64 %.2119151.us
  %58 = load i8, ptr %57, align 1, !tbaa !10
  %59 = getelementptr inbounds nuw i8, ptr %0, i64 %.2123150.us
  store i8 %58, ptr %59, align 1, !tbaa !10
  %60 = add i64 %.1115152.us, -8
  %61 = add i64 %.2123150.us, 1
  %62 = add i64 %.2119151.us, 1
  %63 = icmp ugt i64 %60, 8
  br i1 %63, label %.lr.ph154.split.us, label %.lr.ph166.preheader, !llvm.loop !13

.preheader:                                       ; preds = %._crit_edge
  %.not160 = icmp eq i64 %.0114.lcssa, 0
  br i1 %.not160, label %.loopexit, label %.lr.ph166.preheader

.lr.ph154.split:                                  ; preds = %.lr.ph154.split.preheader, %.lr.ph154.split
  %store_forwarded = phi i8 [ %load_initial, %.lr.ph154.split.preheader ], [ %80, %.lr.ph154.split ]
  %.1115152 = phi i64 [ %.0114.lcssa, %.lr.ph154.split.preheader ], [ %81, %.lr.ph154.split ]
  %.2119151 = phi i64 [ %.0117.lcssa, %.lr.ph154.split.preheader ], [ %83, %.lr.ph154.split ]
  %.2123150 = phi i64 [ %.0121.lcssa, %.lr.ph154.split.preheader ], [ %82, %.lr.ph154.split ]
  %64 = getelementptr inbounds nuw i8, ptr %0, i64 %.2123150
  %65 = and i8 %store_forwarded, %53
  store i8 %65, ptr %64, align 1, !tbaa !10
  %66 = getelementptr inbounds nuw i8, ptr %2, i64 %.2119151
  %67 = load i8, ptr %66, align 1, !tbaa !10
  %68 = zext i8 %67 to i64
  %69 = shl nuw nsw i64 %68, %.0.lcssa
  %70 = trunc i64 %69 to i8
  %71 = or i8 %65, %70
  store i8 %71, ptr %64, align 1, !tbaa !10
  %72 = getelementptr i8, ptr %64, i64 1
  %73 = load i8, ptr %72, align 1, !tbaa !10
  %74 = and i8 %73, %56
  store i8 %74, ptr %72, align 1, !tbaa !10
  %75 = load i8, ptr %66, align 1, !tbaa !10
  %76 = zext i8 %75 to i64
  %77 = and i64 %notmask, %76
  %78 = lshr i64 %77, %47
  %79 = trunc nuw nsw i64 %78 to i8
  %80 = or i8 %74, %79
  store i8 %80, ptr %72, align 1, !tbaa !10
  %81 = add i64 %.1115152, -8
  %82 = add i64 %.2123150, 1
  %83 = add i64 %.2119151, 1
  %84 = icmp ugt i64 %81, 8
  br i1 %84, label %.lr.ph154.split, label %.lr.ph166.preheader, !llvm.loop !13

.lr.ph166.preheader:                              ; preds = %.lr.ph154.split, %.lr.ph154.split.us, %.preheader
  %.2116163.ph = phi i64 [ %.0114.lcssa, %.preheader ], [ %60, %.lr.ph154.split.us ], [ %81, %.lr.ph154.split ]
  %.3120162.ph = phi i64 [ %.0117.lcssa, %.preheader ], [ %62, %.lr.ph154.split.us ], [ %83, %.lr.ph154.split ]
  %.3124161.ph = phi i64 [ %.0121.lcssa, %.preheader ], [ %61, %.lr.ph154.split.us ], [ %82, %.lr.ph154.split ]
  br label %.lr.ph166

.lr.ph166:                                        ; preds = %.lr.ph166.preheader, %.lr.ph166
  %.2165 = phi i64 [ %110, %.lr.ph166 ], [ %.0.lcssa, %.lr.ph166.preheader ]
  %.2112164 = phi i64 [ %106, %.lr.ph166 ], [ %.0110.lcssa, %.lr.ph166.preheader ]
  %.2116163 = phi i64 [ %112, %.lr.ph166 ], [ %.2116163.ph, %.lr.ph166.preheader ]
  %.3120162 = phi i64 [ %.4, %.lr.ph166 ], [ %.3120162.ph, %.lr.ph166.preheader ]
  %.3124161 = phi i64 [ %.4125, %.lr.ph166 ], [ %.3124161.ph, %.lr.ph166.preheader ]
  %85 = sub nuw nsw i64 8, %.2165
  %86 = sub nuw nsw i64 8, %.2112164
  %87 = tail call i64 @llvm.umin.i64(i64 %85, i64 %86)
  %.2116. = tail call i64 @llvm.umin.i64(i64 %.2116163, i64 %87)
  %notmask136 = shl nsw i64 -1, %.2116.
  %88 = xor i64 %notmask136, -1
  %89 = shl nuw nsw i64 %88, %.2165
  %90 = trunc i64 %89 to i8
  %91 = xor i8 %90, -1
  %92 = getelementptr inbounds nuw i8, ptr %0, i64 %.3124161
  %93 = load i8, ptr %92, align 1, !tbaa !10
  %94 = and i8 %93, %91
  store i8 %94, ptr %92, align 1, !tbaa !10
  %95 = getelementptr inbounds nuw i8, ptr %2, i64 %.3120162
  %96 = load i8, ptr %95, align 1, !tbaa !10
  %97 = trunc nuw nsw i64 %.2112164 to i8
  %98 = lshr i8 %96, %97
  %99 = trunc nuw i64 %88 to i8
  %100 = and i8 %98, %99
  %101 = trunc nuw nsw i64 %.2165 to i8
  %102 = shl i8 %100, %101
  %103 = or i8 %102, %94
  store i8 %103, ptr %92, align 1, !tbaa !10
  %104 = add nuw nsw i64 %.2116., %.2112164
  %105 = icmp samesign ugt i64 %104, 7
  %106 = and i64 %104, 7
  %107 = zext i1 %105 to i64
  %.4 = add i64 %.3120162, %107
  %108 = add nuw nsw i64 %.2116., %.2165
  %109 = icmp samesign ugt i64 %108, 7
  %110 = and i64 %108, 7
  %111 = zext i1 %109 to i64
  %.4125 = add i64 %.3124161, %111
  %112 = sub i64 %.2116163, %.2116.
  %.not = icmp eq i64 %112, 0
  br i1 %.not, label %.loopexit, label %.lr.ph166, !llvm.loop !14

.loopexit:                                        ; preds = %.lr.ph166, %.preheader, %5
  ret void
}